target datalayout = "e-m:e-p270:32:32-p271:32:32-p272:64:64-i64:64-i128:128-f80:128-n8:16:32:64-S128"
target triple = "x86_64-pc-linux-gnu"

%"struct.duckdb::LogicalType" = type { i8, i8, %"class.duckdb::shared_ptr" }
%"class.duckdb::shared_ptr" = type { %"class.std::shared_ptr" }
%"class.std::shared_ptr" = type { %"class.std::__shared_ptr" }
%"class.std::__shared_ptr" = type { ptr, %"class.std::__shared_count" }
%"class.std::__shared_count" = type { ptr }
%"class.duckdb::Value" = type { %"struct.duckdb::LogicalType", i8, %"union.duckdb::Value::Val", %"class.duckdb::shared_ptr.194" }
%"union.duckdb::Value::Val" = type { %"struct.duckdb::hugeint_t" }
%"struct.duckdb::hugeint_t" = type { i64, i64 }
%"class.duckdb::shared_ptr.194" = type { %"class.std::shared_ptr.195" }
%"class.std::shared_ptr.195" = type { %"class.std::__shared_ptr.196" }
%"class.std::__shared_ptr.196" = type { ptr, %"class.std::__shared_count" }
%"struct.std::__detail::_Hash_node_base" = type { ptr }
%"struct.std::__detail::_Prime_rehash_policy" = type { float, i64 }
%"class.duckdb::DuckTransaction" = type { %"class.duckdb::Transaction.base", i64, i64, i64, i64, %"struct.std::atomic.175", ptr, %"class.duckdb::UndoBuffer", %"class.duckdb::unique_ptr.429", %"class.duckdb::unique_ptr.438", %"class.std::mutex", %"class.std::unordered_map.447", %"class.std::unordered_map.463", %"class.std::mutex", %"class.std::unordered_map.481" }
%"class.duckdb::Transaction.base" = type <{ ptr, ptr, %"class.duckdb::weak_ptr", %"struct.std::atomic.175", i8 }>
%"class.duckdb::weak_ptr" = type { %"class.std::weak_ptr" }
%"class.std::weak_ptr" = type { %"class.std::__weak_ptr" }
%"class.std::__weak_ptr" = type { ptr, %"class.std::__weak_count" }
%"class.std::__weak_count" = type { ptr }
%"struct.std::atomic.175" = type { %"struct.std::__atomic_base.176" }
%"struct.std::__atomic_base.176" = type { i64 }
%"class.duckdb::UndoBuffer" = type { ptr, %"struct.duckdb::UndoBufferAllocator" }
%"struct.duckdb::UndoBufferAllocator" = type { ptr, %"class.duckdb::unique_ptr.419", %"class.duckdb::optional_ptr.428" }
%"class.duckdb::unique_ptr.419" = type { %"class.std::unique_ptr.420" }
%"class.std::unique_ptr.420" = type { %"struct.std::__uniq_ptr_data.421" }
%"struct.std::__uniq_ptr_data.421" = type { %"class.std::__uniq_ptr_impl.422" }
%"class.std::__uniq_ptr_impl.422" = type { %"class.std::tuple.423" }
%"class.std::tuple.423" = type { %"struct.std::_Tuple_impl.424" }
%"struct.std::_Tuple_impl.424" = type { %"struct.std::_Head_base.427" }
%"struct.std::_Head_base.427" = type { ptr }
%"class.duckdb::optional_ptr.428" = type { ptr }
%"class.duckdb::unique_ptr.429" = type { %"class.std::unique_ptr.430" }
%"class.std::unique_ptr.430" = type { %"struct.std::__uniq_ptr_data.431" }
%"struct.std::__uniq_ptr_data.431" = type { %"class.std::__uniq_ptr_impl.432" }
%"class.std::__uniq_ptr_impl.432" = type { %"class.std::tuple.433" }
%"class.std::tuple.433" = type { %"struct.std::_Tuple_impl.434" }
%"struct.std::_Tuple_impl.434" = type { %"struct.std::_Head_base.437" }
%"struct.std::_Head_base.437" = type { ptr }
%"class.duckdb::unique_ptr.438" = type { %"class.std::unique_ptr.439" }
%"class.std::unique_ptr.439" = type { %"struct.std::__uniq_ptr_data.440" }
%"struct.std::__uniq_ptr_data.440" = type { %"class.std::__uniq_ptr_impl.441" }
%"class.std::__uniq_ptr_impl.441" = type { %"class.std::tuple.442" }
%"class.std::tuple.442" = type { %"struct.std::_Tuple_impl.443" }
%"struct.std::_Tuple_impl.443" = type { %"struct.std::_Head_base.446" }
%"struct.std::_Head_base.446" = type { ptr }
%"class.std::unordered_map.447" = type { %"class.std::_Hashtable.448" }
%"class.std::_Hashtable.448" = type { ptr, i64, %"struct.std::__detail::_Hash_node_base", i64, %"struct.std::__detail::_Prime_rehash_policy", ptr }
%"class.std::unordered_map.463" = type { %"class.std::_Hashtable.464" }
%"class.std::_Hashtable.464" = type { ptr, i64, %"struct.std::__detail::_Hash_node_base", i64, %"struct.std::__detail::_Prime_rehash_policy", ptr }
%"class.std::mutex" = type { %"class.std::__mutex_base" }
%"class.std::__mutex_base" = type { %union.pthread_mutex_t }
%union.pthread_mutex_t = type { %struct.__pthread_mutex_s }
%struct.__pthread_mutex_s = type { i32, i32, i32, i32, i32, i16, i16, %struct.__pthread_internal_list }
%struct.__pthread_internal_list = type { ptr, ptr }
%"class.std::unordered_map.481" = type { %"class.std::_Hashtable.482" }
%"class.std::_Hashtable.482" = type { ptr, i64, %"struct.std::__detail::_Hash_node_base", i64, %"struct.std::__detail::_Prime_rehash_policy", ptr }

; Function Attrs: mustprogress uwtable
define internal void @_ZN6duckdbL20TransactionIdCurrentERNS_9DataChunkERNS_15ExpressionStateERNS_6VectorE(ptr noundef nonnull align 8 dereferenceable(64) %0, ptr noundef nonnull align 8 dereferenceable(176) %1, ptr noundef nonnull align 8 dereferenceable(104) %2) #0 personality ptr @__gxx_personality_v0 {
  %4 = alloca ptr, align 8
  %5 = alloca ptr, align 8
  %6 = alloca ptr, align 8
  %7 = alloca ptr, align 8
  %8 = alloca ptr, align 8
  %9 = alloca ptr, align 8
  %10 = alloca %"class.duckdb::Value", align 8
  %11 = alloca ptr, align 8
  %12 = alloca i32, align 4
  store ptr %0, ptr %4, align 8, !tbaa !40
  store ptr %1, ptr %5, align 8, !tbaa !42
  store ptr %2, ptr %6, align 8, !tbaa !44
  call void @llvm.lifetime.start.p0(i64 8, ptr %7) #8
  %13 = load ptr, ptr %5, align 8, !tbaa !42
  %14 = call noundef nonnull align 8 dereferenceable(648) ptr @_ZN6duckdb15ExpressionState10GetContextEv(ptr noundef nonnull align 8 dereferenceable(176) %13)
  store ptr %14, ptr %7, align 8, !tbaa !118
  call void @llvm.lifetime.start.p0(i64 8, ptr %8) #8
  %15 = load ptr, ptr %7, align 8, !tbaa !118
  %16 = load ptr, ptr %7, align 8, !tbaa !118
  %17 = call noundef nonnull align 8 dereferenceable(32) ptr @_ZN6duckdb15DatabaseManager18GetDefaultDatabaseB5cxx11ERNS_13ClientContextE(ptr noundef nonnull align 8 dereferenceable(648) %16)
  %18 = call noundef nonnull align 8 dereferenceable(80) ptr @_ZN6duckdb7Catalog10GetCatalogERNS_13ClientContextERKNSt7__cxx1112basic_stringIcSt11char_traitsIcESaIcEEE(ptr noundef nonnull align 8 dereferenceable(648) %15, ptr noundef nonnull align 8 dereferenceable(32) %17)
  store ptr %18, ptr %8, align 8, !tbaa !221
  call void @llvm.lifetime.start.p0(i64 8, ptr %9) #8
  %19 = load ptr, ptr %7, align 8, !tbaa !118
  %20 = load ptr, ptr %8, align 8, !tbaa !221
  %21 = call noundef nonnull align 8 dereferenceable(392) ptr @_ZN6duckdb15DuckTransaction3GetERNS_13ClientContextERNS_7CatalogE(ptr noundef nonnull align 8 dereferenceable(648) %19, ptr noundef nonnull align 8 dereferenceable(80) %20)
  store ptr %21, ptr %9, align 8, !tbaa !223
  call void @llvm.lifetime.start.p0(i64 64, ptr %10) #8
  %22 = load ptr, ptr %9, align 8, !tbaa !223
  %23 = getelementptr inbounds nuw %"class.duckdb::DuckTransaction", ptr %22, i32 0, i32 1
  %24 = load i64, ptr %23, align 8, !tbaa !225
  call void @_ZN6duckdb5Value7UBIGINTEm(ptr dead_on_unwind writable sret(%"class.duckdb::Value") align 8 %10, i64 noundef %24)
  %25 = load ptr, ptr %6, align 8, !tbaa !44
  invoke void @_ZN6duckdb6Vector9ReferenceERKNS_5ValueE(ptr noundef nonnull align 8 dereferenceable(104) %25, ptr noundef nonnull align 8 dereferenceable(64) %10)
          to label %26 unwind label %27

26:                                               ; preds = %3
  call void @_ZN6duckdb5ValueD1Ev(ptr noundef nonnull align 8 dereferenceable(64) %10) #8
  call void @llvm.lifetime.end.p0(i64 64, ptr %10) #8
  call void @llvm.lifetime.end.p0(i64 8, ptr %9) #8
  call void @llvm.lifetime.end.p0(i64 8, ptr %8) #8
  call void @llvm.lifetime.end.p0(i64 8, ptr %7) #8
  ret void

27:                                               ; preds = %3
  %28 = landingpad { ptr, i32 }
          cleanup
  %29 = extractvalue { ptr, i32 } %28, 0
  store ptr %29, ptr %11, align 8
  %30 = extractvalue { ptr, i32 } %28, 1
  store i32 %30, ptr %12, align 4
  call void @_ZN6duckdb5ValueD1Ev(ptr noundef nonnull align 8 dereferenceable(64) %10) #8
  call void @llvm.lifetime.end.p0(i64 64, ptr %10) #8
  call void @llvm.lifetime.end.p0(i64 8, ptr %9) #8
  call void @llvm.lifetime.end.p0(i64 8, ptr %8) #8
  call void @llvm.lifetime.end.p0(i64 8, ptr %7) #8
  br label %31

31:                                               ; preds = %27
  %32 = load ptr, ptr %11, align 8
  %33 = load i32, ptr %12, align 4
  %34 = insertvalue { ptr, i32 } poison, ptr %32, 0
  %35 = insertvalue { ptr, i32 } %34, i32 %33, 1
  resume { ptr, i32 } %35
}