; Function Attrs: mustprogress uwtable
define internal void @_ZN6duckdbL20TransactionIdCurrentERNS_9DataChunkERNS_15ExpressionStateERNS_6VectorE(ptr nonnull readnone align 8 captures(none) %0, ptr noundef nonnull align 8 dereferenceable(176) %1, ptr noundef nonnull align 8 dereferenceable(104) %2) #0 personality ptr @__gxx_personality_v0 {
  %4 = alloca %"class.duckdb::Value", align 8
  %5 = tail call noundef nonnull align 8 dereferenceable(648) ptr @_ZN6duckdb15ExpressionState10GetContextEv(ptr noundef nonnull align 8 dereferenceable(176) %1)
  %6 = tail call noundef nonnull align 8 dereferenceable(32) ptr @_ZN6duckdb15DatabaseManager18GetDefaultDatabaseB5cxx11ERNS_13ClientContextE(ptr noundef nonnull align 8 dereferenceable(648) %5)
  %7 = tail call noundef nonnull align 8 dereferenceable(80) ptr @_ZN6duckdb7Catalog10GetCatalogERNS_13ClientContextERKNSt7__cxx1112basic_stringIcSt11char_traitsIcESaIcEEE(ptr noundef nonnull align 8 dereferenceable(648) %5, ptr noundef nonnull align 8 dereferenceable(32) %6)
  %8 = tail call noundef nonnull align 8 dereferenceable(392) ptr @_ZN6duckdb15DuckTransaction3GetERNS_13ClientContextERNS_7CatalogE(ptr noundef nonnull align 8 dereferenceable(648) %5, ptr noundef nonnull align 8 dereferenceable(80) %7)
  call void @llvm.lifetime.start.p0(i64 64, ptr nonnull %4) #27
  %9 = getelementptr inbounds nuw i8, ptr %8, i64 48
  %10 = load i64, ptr %9, align 8, !tbaa !344
  call void @_ZN6duckdb5Value7UBIGINTEm(ptr dead_on_unwind nonnull writable sret(%"class.duckdb::Value") align 8 %4, i64 noundef %10)
  invoke void @_ZN6duckdb6Vector9ReferenceERKNS_5ValueE(ptr noundef nonnull align 8 dereferenceable(104) %2, ptr noundef nonnull align 8 dereferenceable(64) %4)
          to label %11 unwind label %12

11:                                               ; preds = %3
  call void @_ZN6duckdb5ValueD1Ev(ptr noundef nonnull align 8 dereferenceable(64) %4) #27
  call void @llvm.lifetime.end.p0(i64 64, ptr nonnull %4) #27
  ret void

12:                                               ; preds = %3
  %13 = landingpad { ptr, i32 }
          cleanup
  call void @_ZN6duckdb5ValueD1Ev(ptr noundef nonnull align 8 dereferenceable(64) %4) #27
  call void @llvm.lifetime.end.p0(i64 64, ptr nonnull %4) #27
  resume { ptr, i32 } %13
}